target datalayout = "e-m:e-p270:32:32-p271:32:32-p272:64:64-i64:64-i128:128-f80:128-n8:16:32:64-S128"
target triple = "x86_64-pc-linux-gnu"

%struct._dcerpc_info = type { ptr, i32, i64, i8, i8, i8, i32, i32, i32, i32, i32, i32, i32, i32, ptr, ptr, ptr, ptr, %struct.anon }
%struct.anon = type { i8, ptr, ptr, ptr, i8 }
%struct._packet_info = type { ptr, ptr, i32, i32, %struct.nstime_t, %struct.nstime_t, %struct.nstime_t, i8, ptr, ptr, ptr, ptr, %struct._address, %struct._address, %struct._address, %struct._address, %struct._address, %struct._address, i32, ptr, i8, [3 x i8], %struct.anon.0, i32, i32, i32, i32, ptr, i8, ptr, ptr, i16, i16, i32, i32, i16, i32, i32, ptr, ptr, ptr, i8, i8, i16, i16, i16, i32, i16, i16, ptr, ptr, ptr, ptr, ptr, i32, i32 }
%struct.nstime_t = type { i64, i32 }
%struct._address = type { i32, i32, ptr, ptr }
%struct.anon.0 = type { i8, [3 x i8] }

@hf_fileexp_afsFid_cell_high = internal global i32 0, align 4
@hf_fileexp_afsFid_cell_low = internal global i32 0, align 4
@hf_fileexp_afsFid_volume_high = internal global i32 0, align 4
@hf_fileexp_afsFid_volume_low = internal global i32 0, align 4
@hf_fileexp_afsFid_Vnode = internal global i32 0, align 4
@hf_fileexp_afsFid_Unique = internal global i32 0, align 4
@ett_fileexp_afsFid = internal global i32 0, align 4
@.str.379 = private unnamed_addr constant [8 x i8] c"afsFid:\00", align 1
@.str.380 = private unnamed_addr constant [11 x i8] c" :FSID:%u \00", align 1
@.str.381 = private unnamed_addr constant [7 x i8] c" InFS \00", align 1
@.str.382 = private unnamed_addr constant [11 x i8] c" inode:%u \00", align 1

; Function Attrs: null_pointer_is_valid sspstrong uwtable
define internal i32 @dissect_afsFid(ptr noundef %0, i32 noundef %1, ptr noundef %2, ptr noundef %3, ptr noundef %4, ptr noundef %5) #0 {
  %7 = alloca i32, align 4
  %8 = alloca ptr, align 8
  %9 = alloca i32, align 4
  %10 = alloca ptr, align 8
  %11 = alloca ptr, align 8
  %12 = alloca ptr, align 8
  %13 = alloca ptr, align 8
  %14 = alloca ptr, align 8
  %15 = alloca ptr, align 8
  %16 = alloca i32, align 4
  %17 = alloca i32, align 4
  %18 = alloca i32, align 4
  %19 = alloca i32, align 4
  %20 = alloca i32, align 4
  %21 = alloca i32, align 4
  store ptr %0, ptr %8, align 8
  store i32 %1, ptr %9, align 4
  store ptr %2, ptr %10, align 8
  store ptr %3, ptr %11, align 8
  store ptr %4, ptr %12, align 8
  store ptr %5, ptr %13, align 8
  call void @llvm.lifetime.start.p0(i64 8, ptr %14) #4
  store ptr null, ptr %14, align 8
  call void @llvm.lifetime.start.p0(i64 8, ptr %15) #4
  store ptr null, ptr %15, align 8
  call void @llvm.lifetime.start.p0(i64 4, ptr %16) #4
  %22 = load i32, ptr %9, align 4
  store i32 %22, ptr %16, align 4
  call void @llvm.lifetime.start.p0(i64 4, ptr %17) #4
  call void @llvm.lifetime.start.p0(i64 4, ptr %18) #4
  call void @llvm.lifetime.start.p0(i64 4, ptr %19) #4
  call void @llvm.lifetime.start.p0(i64 4, ptr %20) #4
  %23 = load ptr, ptr %12, align 8
  %24 = getelementptr inbounds nuw %struct._dcerpc_info, ptr %23, i32 0, i32 4
  %25 = load i8, ptr %24, align 1, !range !6, !noundef !7
  %26 = trunc i8 %25 to i1
  br i1 %26, label %27, label %29

27:                                               ; preds = %6
  %28 = load i32, ptr %9, align 4
  store i32 %28, ptr %7, align 4
  store i32 1, ptr %21, align 4
  br label %116

29:                                               ; preds = %6
  %30 = load ptr, ptr %11, align 8
  %31 = icmp ne ptr %30, null
  br i1 %31, label %32, label %38

32:                                               ; preds = %29
  %33 = load ptr, ptr %11, align 8
  %34 = load ptr, ptr %8, align 8
  %35 = load i32, ptr %9, align 4
  %36 = load i32, ptr @ett_fileexp_afsFid, align 4
  %37 = call ptr @proto_tree_add_subtree(ptr noundef %33, ptr noundef %34, i32 noundef %35, i32 noundef -1, i32 noundef %36, ptr noundef %14, ptr noundef @.str.379)
  store ptr %37, ptr %15, align 8
  br label %38

38:                                               ; preds = %32, %29
  %39 = load ptr, ptr %8, align 8
  %40 = load i32, ptr %9, align 4
  %41 = load ptr, ptr %10, align 8
  %42 = load ptr, ptr %15, align 8
  %43 = load ptr, ptr %12, align 8
  %44 = load ptr, ptr %13, align 8
  %45 = load i32, ptr @hf_fileexp_afsFid_cell_high, align 4
  %46 = call i32 @dissect_ndr_uint32(ptr noundef %39, i32 noundef %40, ptr noundef %41, ptr noundef %42, ptr noundef %43, ptr noundef %44, i32 noundef %45, ptr noundef null)
  store i32 %46, ptr %9, align 4
  %47 = load ptr, ptr %8, align 8
  %48 = load i32, ptr %9, align 4
  %49 = load ptr, ptr %10, align 8
  %50 = load ptr, ptr %15, align 8
  %51 = load ptr, ptr %12, align 8
  %52 = load ptr, ptr %13, align 8
  %53 = load i32, ptr @hf_fileexp_afsFid_cell_low, align 4
  %54 = call i32 @dissect_ndr_uint32(ptr noundef %47, i32 noundef %48, ptr noundef %49, ptr noundef %50, ptr noundef %51, ptr noundef %52, i32 noundef %53, ptr noundef null)
  store i32 %54, ptr %9, align 4
  %55 = load ptr, ptr %8, align 8
  %56 = load i32, ptr %9, align 4
  %57 = load ptr, ptr %10, align 8
  %58 = load ptr, ptr %15, align 8
  %59 = load ptr, ptr %12, align 8
  %60 = load ptr, ptr %13, align 8
  %61 = load i32, ptr @hf_fileexp_afsFid_volume_high, align 4
  %62 = call i32 @dissect_ndr_uint32(ptr noundef %55, i32 noundef %56, ptr noundef %57, ptr noundef %58, ptr noundef %59, ptr noundef %60, i32 noundef %61, ptr noundef null)
  store i32 %62, ptr %9, align 4
  %63 = load ptr, ptr %8, align 8
  %64 = load i32, ptr %9, align 4
  %65 = load ptr, ptr %10, align 8
  %66 = load ptr, ptr %15, align 8
  %67 = load ptr, ptr %12, align 8
  %68 = load ptr, ptr %13, align 8
  %69 = load i32, ptr @hf_fileexp_afsFid_volume_low, align 4
  %70 = call i32 @dissect_ndr_uint32(ptr noundef %63, i32 noundef %64, ptr noundef %65, ptr noundef %66, ptr noundef %67, ptr noundef %68, i32 noundef %69, ptr noundef %17)
  store i32 %70, ptr %9, align 4
  %71 = load ptr, ptr %8, align 8
  %72 = load i32, ptr %9, align 4
  %73 = load ptr, ptr %10, align 8
  %74 = load ptr, ptr %15, align 8
  %75 = load ptr, ptr %12, align 8
  %76 = load ptr, ptr %13, align 8
  %77 = load i32, ptr @hf_fileexp_afsFid_Vnode, align 4
  %78 = call i32 @dissect_ndr_uint32(ptr noundef %71, i32 noundef %72, ptr noundef %73, ptr noundef %74, ptr noundef %75, ptr noundef %76, i32 noundef %77, ptr noundef %19)
  store i32 %78, ptr %9, align 4
  %79 = load ptr, ptr %8, align 8
  %80 = load i32, ptr %9, align 4
  %81 = load ptr, ptr %10, align 8
  %82 = load ptr, ptr %15, align 8
  %83 = load ptr, ptr %12, align 8
  %84 = load ptr, ptr %13, align 8
  %85 = load i32, ptr @hf_fileexp_afsFid_Unique, align 4
  %86 = call i32 @dissect_ndr_uint32(ptr noundef %79, i32 noundef %80, ptr noundef %81, ptr noundef %82, ptr noundef %83, ptr noundef %84, i32 noundef %85, ptr noundef %18)
  store i32 %86, ptr %9, align 4
  %87 = load ptr, ptr %10, align 8
  %88 = getelementptr inbounds nuw %struct._packet_info, ptr %87, i32 0, i32 1
  %89 = load ptr, ptr %88, align 8
  %90 = load i32, ptr %17, align 4
  call void (ptr, i32, ptr, ...) @col_append_fstr(ptr noundef %89, i32 noundef 25, ptr noundef @.str.380, i32 noundef %90)
  %91 = load i32, ptr %19, align 4
  %92 = icmp eq i32 %91, 1
  br i1 %92, label %96, label %93

93:                                               ; preds = %38
  %94 = load i32, ptr %19, align 4
  %95 = icmp eq i32 %94, 2
  br i1 %95, label %96, label %100

96:                                               ; preds = %93, %38
  %97 = load ptr, ptr %10, align 8
  %98 = getelementptr inbounds nuw %struct._packet_info, ptr %97, i32 0, i32 1
  %99 = load ptr, ptr %98, align 8
  call void @col_append_str(ptr noundef %99, i32 noundef 25, ptr noundef @.str.381)
  br label %110

100:                                              ; preds = %93
  %101 = load i32, ptr %17, align 4
  %102 = shl i32 %101, 16
  %103 = load i32, ptr %19, align 4
  %104 = add i32 %102, %103
  %105 = and i32 %104, 2147483647
  store i32 %105, ptr %20, align 4
  %106 = load ptr, ptr %10, align 8
  %107 = getelementptr inbounds nuw %struct._packet_info, ptr %106, i32 0, i32 1
  %108 = load ptr, ptr %107, align 8
  %109 = load i32, ptr %20, align 4
  call void (ptr, i32, ptr, ...) @col_append_fstr(ptr noundef %108, i32 noundef 25, ptr noundef @.str.382, i32 noundef %109)
  br label %110

110:                                              ; preds = %100, %96
  %111 = load ptr, ptr %14, align 8
  %112 = load i32, ptr %9, align 4
  %113 = load i32, ptr %16, align 4
  %114 = sub i32 %112, %113
  call void @proto_item_set_len(ptr noundef %111, i32 noundef %114)
  %115 = load i32, ptr %9, align 4
  store i32 %115, ptr %7, align 4
  store i32 1, ptr %21, align 4
  br label %116

116:                                              ; preds = %110, %27
  call void @llvm.lifetime.end.p0(i64 4, ptr %20) #4
  call void @llvm.lifetime.end.p0(i64 4, ptr %19) #4
  call void @llvm.lifetime.end.p0(i64 4, ptr %18) #4
  call void @llvm.lifetime.end.p0(i64 4, ptr %17) #4
  call void @llvm.lifetime.end.p0(i64 4, ptr %16) #4
  call void @llvm.lifetime.end.p0(i64 8, ptr %15) #4
  call void @llvm.lifetime.end.p0(i64 8, ptr %14) #4
  %117 = load i32, ptr %7, align 4
  ret i32 %117
}