; Function Attrs: null_pointer_is_valid sspstrong uwtable
define internal i32 @dissect_afsFid(ptr noundef %0, i32 noundef %1, ptr noundef %2, ptr noundef %3, ptr noundef %4, ptr noundef %5) #0 {
  %7 = alloca ptr, align 8
  %8 = alloca i32, align 4
  %9 = alloca i32, align 4
  %10 = alloca i32, align 4
  call void @llvm.lifetime.start.p0(i64 8, ptr nonnull %7) #4
  store ptr null, ptr %7, align 8
  call void @llvm.lifetime.start.p0(i64 4, ptr nonnull %8) #4
  call void @llvm.lifetime.start.p0(i64 4, ptr nonnull %9) #4
  call void @llvm.lifetime.start.p0(i64 4, ptr nonnull %10) #4
  %11 = getelementptr inbounds nuw i8, ptr %4, i64 25
  %12 = load i8, ptr %11, align 1, !range !6, !noundef !7
  %13 = trunc nuw i8 %12 to i1
  br i1 %13, label %47, label %14

14:                                               ; preds = %6
  %.not = icmp eq ptr %3, null
  br i1 %.not, label %18, label %15

15:                                               ; preds = %14
  %16 = load i32, ptr @ett_fileexp_afsFid, align 4
  %17 = call ptr @proto_tree_add_subtree(ptr noundef nonnull %3, ptr noundef %0, i32 noundef %1, i32 noundef -1, i32 noundef %16, ptr noundef nonnull %7, ptr noundef nonnull @.str.379)
  br label %18

18:                                               ; preds = %15, %14
  %.051 = phi ptr [ %17, %15 ], [ null, %14 ]
  %19 = load i32, ptr @hf_fileexp_afsFid_cell_high, align 4
  %20 = call i32 @dissect_ndr_uint32(ptr noundef %0, i32 noundef %1, ptr noundef %2, ptr noundef %.051, ptr noundef %4, ptr noundef %5, i32 noundef %19, ptr noundef null)
  %21 = load i32, ptr @hf_fileexp_afsFid_cell_low, align 4
  %22 = call i32 @dissect_ndr_uint32(ptr noundef %0, i32 noundef %20, ptr noundef %2, ptr noundef %.051, ptr noundef %4, ptr noundef %5, i32 noundef %21, ptr noundef null)
  %23 = load i32, ptr @hf_fileexp_afsFid_volume_high, align 4
  %24 = call i32 @dissect_ndr_uint32(ptr noundef %0, i32 noundef %22, ptr noundef %2, ptr noundef %.051, ptr noundef %4, ptr noundef %5, i32 noundef %23, ptr noundef null)
  %25 = load i32, ptr @hf_fileexp_afsFid_volume_low, align 4
  %26 = call i32 @dissect_ndr_uint32(ptr noundef %0, i32 noundef %24, ptr noundef %2, ptr noundef %.051, ptr noundef %4, ptr noundef %5, i32 noundef %25, ptr noundef nonnull %8)
  %27 = load i32, ptr @hf_fileexp_afsFid_Vnode, align 4
  %28 = call i32 @dissect_ndr_uint32(ptr noundef %0, i32 noundef %26, ptr noundef %2, ptr noundef %.051, ptr noundef %4, ptr noundef %5, i32 noundef %27, ptr noundef nonnull %10)
  %29 = load i32, ptr @hf_fileexp_afsFid_Unique, align 4
  %30 = call i32 @dissect_ndr_uint32(ptr noundef %0, i32 noundef %28, ptr noundef %2, ptr noundef %.051, ptr noundef %4, ptr noundef %5, i32 noundef %29, ptr noundef nonnull %9)
  %31 = getelementptr inbounds nuw i8, ptr %2, i64 8
  %32 = load ptr, ptr %31, align 8
  %33 = load i32, ptr %8, align 4
  call void (ptr, i32, ptr, ...) @col_append_fstr(ptr noundef %32, i32 noundef 25, ptr noundef nonnull @.str.380, i32 noundef %33)
  %34 = load i32, ptr %10, align 4
  %35 = add i32 %34, -1
  %or.cond = icmp ult i32 %35, 2
  br i1 %or.cond, label %36, label %38

36:                                               ; preds = %18
  %37 = load ptr, ptr %31, align 8
  call void @col_append_str(ptr noundef %37, i32 noundef 25, ptr noundef nonnull @.str.381)
  br label %44

38:                                               ; preds = %18
  %39 = load i32, ptr %8, align 4
  %40 = shl i32 %39, 16
  %41 = add i32 %40, %34
  %42 = and i32 %41, 2147483647
  %43 = load ptr, ptr %31, align 8
  call void (ptr, i32, ptr, ...) @col_append_fstr(ptr noundef %43, i32 noundef 25, ptr noundef nonnull @.str.382, i32 noundef %42)
  br label %44

44:                                               ; preds = %38, %36
  %45 = load ptr, ptr %7, align 8
  %46 = sub i32 %30, %1
  call void @proto_item_set_len(ptr noundef %45, i32 noundef %46)
  br label %47

47:                                               ; preds = %6, %44
  %.0 = phi i32 [ %30, %44 ], [ %1, %6 ]
  call void @llvm.lifetime.end.p0(i64 4, ptr nonnull %10) #4
  call void @llvm.lifetime.end.p0(i64 4, ptr nonnull %9) #4
  call void @llvm.lifetime.end.p0(i64 4, ptr nonnull %8) #4
  call void @llvm.lifetime.end.p0(i64 8, ptr nonnull %7) #4
  ret i32 %.0
}